Certificate:
    Data:
        Version: 3 (0x2)
        Serial Number: 2 (0x2)
    Signature Algorithm: sha256WithRSAEncryption
        Issuer: C=US, ST=California, L=Los Altos, O=nc99 Server, OU=IT, CN=nc99 Server CA/name=EasyRSA/emailAddress=thenc99server@gmail.com
        Validity
            Not Before: Aug 30 00:09:30 2015 GMT
            Not After : Aug 27 00:09:30 2025 GMT
        Subject: C=US, ST=California, L=Los Altos, O=nc99 Server, OU=IT, CN=*.nc99.co/name=EasyRSA/emailAddress=thenc99server@gmail.com
        Subject Public Key Info:
            Public Key Algorithm: rsaEncryption
                Public-Key: (2048 bit)
                Modulus:
                    00:fc:f8:4b:7a:04:20:6e:5e:f0:05:17:39:2b:23:
                    23:1b:46:6d:b3:54:aa:40:74:a1:c1:7a:7c:88:19:
                    b0:71:ec:f1:f6:5b:71:41:5c:ba:a8:fb:c7:c9:d8:
                    8c:85:e5:a8:31:37:a0:b6:9d:b8:ef:03:bb:fd:2b:
                    81:3c:86:6b:2e:6c:0e:21:b6:b8:4e:4b:a3:60:9e:
                    e6:b3:e7:c7:99:92:3a:44:1c:5e:29:24:45:72:69:
                    41:f2:60:54:0d:1b:c8:fb:3e:35:05:7c:c3:04:cc:
                    a9:a0:df:6e:e8:b6:f2:43:d4:70:6a:68:39:f5:08:
                    73:d0:3c:c2:7a:37:c3:ae:90:51:34:42:a5:75:39:
                    1c:9e:62:0f:a1:b3:ec:ff:90:4e:f8:81:6d:82:cc:
                    d3:26:9a:06:12:c0:cc:64:64:1f:31:3f:87:7f:42:
                    83:68:f1:dd:09:09:03:d0:00:74:b1:f3:5c:71:e4:
                    f1:55:9f:f8:f2:8b:af:d6:5f:f6:e1:6b:36:25:91:
                    f5:e9:bc:20:25:9e:8f:8a:0a:af:bb:cc:71:5a:0f:
                    61:9e:70:ad:a8:73:8c:68:03:40:db:4c:15:c4:2c:
                    a2:91:a4:58:fb:2d:95:59:06:ca:64:29:03:5e:5e:
                    9d:e0:a9:b2:84:b3:f6:13:bd:37:c0:10:1a:45:8e:
                    b7:cd
                Exponent: 65537 (0x10001)
        X509v3 extensions:
            X509v3 Basic Constraints: 
                CA:FALSE
            Netscape Cert Type: 
                SSL Server
            Netscape Comment: 
                Easy-RSA Generated Server Certificate
            X509v3 Subject Key Identifier: 
                C7:5E:8B:5A:8B:4B:CA:E7:F8:BC:D5:C1:E6:49:34:90:93:6F:6D:B9
            X509v3 Authority Key Identifier: 
                keyid:03:D3:59:9F:22:94:75:9B:A9:17:99:42:D2:5D:E0:1D:2E:8B:69:84
                DirName:/C=US/ST=California/L=Los Altos/O=nc99 Server/OU=IT/CN=nc99 Server CA/name=EasyRSA/emailAddress=thenc99server@gmail.com
                serial:93:BE:9E:E5:56:C3:AE:1E

            X509v3 Extended Key Usage: 
                TLS Web Server Authentication
            X509v3 Key Usage: 
                Digital Signature, Key Encipherment
            X509v3 Subject Alternative Name: 
                DNS:*.nc99.co
    Signature Algorithm: sha256WithRSAEncryption
         6a:23:97:ee:55:a0:90:34:d2:40:d0:42:14:b2:f5:b1:55:8a:
         f1:f4:9b:ee:cf:10:75:6c:5d:78:a2:1a:e4:63:87:0e:b3:2f:
         4d:e5:5f:ac:10:79:84:c3:e4:1a:2c:fc:ec:c8:4d:bd:09:0d:
         2b:9e:60:52:f5:de:43:dc:f9:f5:01:9d:34:36:77:f4:30:7f:
         c9:3b:da:f4:5b:ad:06:f5:ca:8e:30:e7:73:ed:0f:e7:cf:36:
         1b:64:9f:79:bb:41:f1:c4:81:28:98:37:79:48:6a:e6:a5:86:
         57:92:0f:1c:30:82:e9:43:82:3d:fa:f7:bc:d2:bd:25:61:24:
         3c:c6:73:dc:c4:76:17:e2:2a:cf:95:87:ac:3c:56:2b:3e:4b:
         d9:78:0c:f3:ef:bf:4d:ad:f4:4e:0c:3e:74:b3:4e:ea:97:fa:
         4f:42:9d:e8:17:fd:c6:e4:09:f8:84:4c:a0:a2:9e:31:08:cd:
         7b:e8:ed:94:93:01:82:b6:f9:b6:2e:a0:7d:7c:89:a6:05:35:
         ad:c6:45:b0:cc:a2:21:01:73:49:50:bd:2f:b2:f8:8d:2f:dd:
         1f:56:6b:a6:86:ee:c6:50:f3:73:e0:5a:bc:46:f5:07:69:b1:
         e8:6c:17:8f:03:21:95:8c:0f:65:3b:d9:25:58:c9:61:2a:36:
         4f:72:54:f2
-----BEGIN CERTIFICATE-----
MIIFZTCCBE2gAwIBAgIBAjANBgkqhkiG9w0BAQsFADCBrDELMAkGA1UEBhMCVVMx
EzARBgNVBAgTCkNhbGlmb3JuaWExEjAQBgNVBAcTCUxvcyBBbHRvczEUMBIGA1UE
ChMLbmM5OSBTZXJ2ZXIxCzAJBgNVBAsTAklUMRcwFQYDVQQDEw5uYzk5IFNlcnZl
ciBDQTEQMA4GA1UEKRMHRWFzeVJTQTEmMCQGCSqGSIb3DQEJARYXdGhlbmM5OXNl
cnZlckBnbWFpbC5jb20wHhcNMTUwODMwMDAwOTMwWhcNMjUwODI3MDAwOTMwWjCB
pzELMAkGA1UEBhMCVVMxEzARBgNVBAgTCkNhbGlmb3JuaWExEjAQBgNVBAcTCUxv
cyBBbHRvczEUMBIGA1UEChMLbmM5OSBTZXJ2ZXIxCzAJBgNVBAsTAklUMRIwEAYD
VQQDFAkqLm5jOTkuY28xEDAOBgNVBCkTB0Vhc3lSU0ExJjAkBgkqhkiG9w0BCQEW
F3RoZW5jOTlzZXJ2ZXJAZ21haWwuY29tMIIBIjANBgkqhkiG9w0BAQEFAAOCAQ8A
MIIBCgKCAQEA/PhLegQgbl7wBRc5KyMjG0Zts1SqQHShwXp8iBmwcezx9ltxQVy6
qPvHydiMheWoMTegtp247wO7/SuBPIZrLmwOIba4TkujYJ7ms+fHmZI6RBxeKSRF
cmlB8mBUDRvI+z41BXzDBMypoN9u6LbyQ9Rwamg59Qhz0DzCejfDrpBRNEKldTkc
nmIPobPs/5BO+IFtgszTJpoGEsDMZGQfMT+Hf0KDaPHdCQkD0AB0sfNcceTxVZ/4
8ouv1l/24Ws2JZH16bwgJZ6Pigqvu8xxWg9hnnCtqHOMaANA20wVxCyikaRY+y2V
WQbKZCkDXl6d4KmyhLP2E703wBAaRY63zQIDAQABo4IBkzCCAY8wCQYDVR0TBAIw
ADARBglghkgBhvhCAQEEBAMCBkAwNAYJYIZIAYb4QgENBCcWJUVhc3ktUlNBIEdl
bmVyYXRlZCBTZXJ2ZXIgQ2VydGlmaWNhdGUwHQYDVR0OBBYEFMdei1qLS8rn+LzV
weZJNJCTb225MIHhBgNVHSMEgdkwgdaAFAPTWZ8ilHWbqReZQtJd4B0ui2mEoYGy
pIGvMIGsMQswCQYDVQQGEwJVUzETMBEGA1UECBMKQ2FsaWZvcm5pYTESMBAGA1UE
BxMJTG9zIEFsdG9zMRQwEgYDVQQKEwtuYzk5IFNlcnZlcjELMAkGA1UECxMCSVQx
FzAVBgNVBAMTDm5jOTkgU2VydmVyIENBMRAwDgYDVQQpEwdFYXN5UlNBMSYwJAYJ
KoZIhvcNAQkBFhd0aGVuYzk5c2VydmVyQGdtYWlsLmNvbYIJAJO+nuVWw64eMBMG
A1UdJQQMMAoGCCsGAQUFBwMBMAsGA1UdDwQEAwIFoDAUBgNVHREEDTALggkqLm5j
OTkuY28wDQYJKoZIhvcNAQELBQADggEBAGojl+5VoJA00kDQQhSy9bFVivH0m+7P
EHVsXXiiGuRjhw6zL03lX6wQeYTD5Bos/OzITb0JDSueYFL13kPc+fUBnTQ2d/Qw
f8k72vRbrQb1yo4w53PtD+fPNhtkn3m7QfHEgSiYN3lIaualhleSDxwwgulDgj36
97zSvSVhJDzGc9zEdhfiKs+Vh6w8Vis+S9l4DPPvv02t9E4MPnSzTuqX+k9CnegX
/cbkCfiETKCinjEIzXvo7ZSTAYK2+bYuoH18iaYFNa3GRbDMoiEBc0lQvS+y+I0v
3R9Wa6aG7sZQ83PgWrxG9QdpsehsF48DIZWMD2U72SVYyWEqNk9yVPI=
-----END CERTIFICATE-----
